; Function Attrs: nounwind sspstrong uwtable
define dso_local void @target_to_host_sigset(ptr noundef %d, ptr noundef readonly captures(none) %s) local_unnamed_addr #1 {
entry:
  %0 = load i64, ptr %s, align 8
  %call.i = tail call i32 @sigemptyset(ptr noundef %d) #16
  br label %target_to_host_signal.exit.i

target_to_host_signal.exit.i:                     ; preds = %for.inc.i, %entry
  %indvars.iv.i = phi i64 [ 1, %entry ], [ %indvars.iv.next.i, %for.inc.i ]
  %arrayidx.i.i = getelementptr [65 x i8], ptr @target_to_host_signal_table, i64 0, i64 %indvars.iv.i
  %1 = load i8, ptr %arrayidx.i.i, align 1
  %conv.i.i = zext i8 %1 to i32
  %2 = add nsw i32 %conv.i.i, -65
  %or.cond.i = icmp ult i32 %2, -64
  br i1 %or.cond.i, label %for.inc.i, label %if.end.i

if.end.i:                                         ; preds = %target_to_host_signal.exit.i
  %3 = add nsw i64 %indvars.iv.i, -1
  %4 = shl nuw i64 1, %3
  %5 = and i64 %4, %0
  %tobool.not.i = icmp eq i64 %5, 0
  br i1 %tobool.not.i, label %for.inc.i, label %if.then5.i

if.then5.i:                                       ; preds = %if.end.i
  %call6.i = tail call i32 @sigaddset(ptr noundef %d, i32 noundef %conv.i.i) #16
  br label %for.inc.i

for.inc.i:                                        ; preds = %if.then5.i, %if.end.i, %target_to_host_signal.exit.i
  %indvars.iv.next.i = add nuw nsw i64 %indvars.iv.i, 1
  %exitcond.not.i = icmp eq i64 %indvars.iv.next.i, 65
  br i1 %exitcond.not.i, label %target_to_host_sigset_internal.exit, label %target_to_host_signal.exit.i, !llvm.loop !7

target_to_host_sigset_internal.exit:              ; preds = %for.inc.i
  ret void
}